target datalayout = "e-m:e-p270:32:32-p271:32:32-p272:64:64-i64:64-i128:128-f80:128-n8:16:32:64-S128"
target triple = "x86_64-unknown-linux-gnu"

%struct.ChardevClass = type { %struct.ObjectClass, i8, i8, ptr, ptr, ptr, ptr, ptr, ptr, ptr, ptr, ptr, ptr, ptr, ptr, ptr, ptr, ptr, ptr }
%struct.ObjectClass = type { ptr, ptr, [4 x ptr], [4 x ptr], ptr, ptr }

@.str.4 = private unnamed_addr constant [8 x i8] c"chardev\00", align 1
@.str.104 = private unnamed_addr constant [101 x i8] c"/home/dtcxzyw/WorkSpace/Projects/compilers/llvm-opt-benchmark/bench/qemu/qemu/include/chardev/char.h\00", align 1
@__func__.CHARDEV_GET_CLASS = private unnamed_addr constant [18 x i8] c"CHARDEV_GET_CLASS\00", align 1

; Function Attrs: nounwind sspstrong uwtable
define internal ptr @CHARDEV_GET_CLASS(ptr noundef %obj) #0 {
entry:
  %obj.addr = alloca ptr, align 8
  store ptr %obj, ptr %obj.addr, align 8
  %0 = load ptr, ptr %obj.addr, align 8
  %call = call ptr @object_get_class(ptr noundef %0)
  %call1 = call ptr @object_class_dynamic_cast_assert(ptr noundef %call, ptr noundef @.str.4, ptr noundef @.str.104, i32 noundef 231, ptr noundef @__func__.CHARDEV_GET_CLASS)
  ret ptr %call1
}

; Function Attrs: nounwind sspstrong uwtable
define dso_local i32 @qemu_chr_add_client(ptr noundef %s, i32 noundef %fd) #0 {
entry:
  %s.addr = alloca ptr, align 8
  %fd.addr = alloca i32, align 4
  store ptr %s, ptr %s.addr, align 8
  store i32 %fd, ptr %fd.addr, align 4
  %0 = load ptr, ptr %s.addr, align 8
  %call = call ptr @CHARDEV_GET_CLASS(ptr noundef %0)
  %chr_add_client = getelementptr inbounds %struct.ChardevClass, ptr %call, i32 0, i32 12
  %1 = load ptr, ptr %chr_add_client, align 8
  %tobool = icmp ne ptr %1, null
  br i1 %tobool, label %cond.true, label %cond.false

cond.true:                                        ; preds = %entry
  %2 = load ptr, ptr %s.addr, align 8
  %call1 = call ptr @CHARDEV_GET_CLASS(ptr noundef %2)
  %chr_add_client2 = getelementptr inbounds %struct.ChardevClass, ptr %call1, i32 0, i32 12
  %3 = load ptr, ptr %chr_add_client2, align 8
  %4 = load ptr, ptr %s.addr, align 8
  %5 = load i32, ptr %fd.addr, align 4
  %call3 = call i32 %3(ptr noundef %4, i32 noundef %5)
  br label %cond.end

cond.false:                                       ; preds = %entry
  br label %cond.end

cond.end:                                         ; preds = %cond.false, %cond.true
  %cond = phi i32 [ %call3, %cond.true ], [ -1, %cond.false ]
  ret i32 %cond
}