; Function Attrs: nounwind sspstrong uwtable
define dso_local i32 @qemu_chr_add_client(ptr noundef %s, i32 noundef %fd) local_unnamed_addr #0 {
entry:
  %call.i = tail call ptr @object_get_class(ptr noundef %s) #13
  %call1.i = tail call ptr @object_class_dynamic_cast_assert(ptr noundef %call.i, ptr noundef nonnull @.str.4, ptr noundef nonnull @.str.104, i32 noundef 231, ptr noundef nonnull @__func__.CHARDEV_GET_CLASS) #13
  %chr_add_client = getelementptr inbounds nuw i8, ptr %call1.i, i64 176
  %0 = load ptr, ptr %chr_add_client, align 8
  %tobool.not = icmp eq ptr %0, null
  br i1 %tobool.not, label %cond.end, label %cond.true

cond.true:                                        ; preds = %entry
  %call.i3 = tail call ptr @object_get_class(ptr noundef %s) #13
  %call1.i4 = tail call ptr @object_class_dynamic_cast_assert(ptr noundef %call.i3, ptr noundef nonnull @.str.4, ptr noundef nonnull @.str.104, i32 noundef 231, ptr noundef nonnull @__func__.CHARDEV_GET_CLASS) #13
  %chr_add_client2 = getelementptr inbounds nuw i8, ptr %call1.i4, i64 176
  %1 = load ptr, ptr %chr_add_client2, align 8
  %call3 = tail call i32 %1(ptr noundef %s, i32 noundef %fd) #13
  br label %cond.end

cond.end:                                         ; preds = %entry, %cond.true
  %cond = phi i32 [ %call3, %cond.true ], [ -1, %entry ]
  ret i32 %cond
}